; Function Attrs: mustprogress uwtable
define void @_Z18dd_force_flop_stopP12gmx_domdec_tP6t_nrnb(ptr nocapture noundef readonly %0, ptr nocapture noundef readonly %1) local_unnamed_addr #0 {
  %3 = getelementptr inbounds i8, ptr %0, i64 320
  %4 = load ptr, ptr %3, align 8
  %5 = getelementptr inbounds i8, ptr %4, i64 8
  %6 = load i32, ptr %5, align 8
  %.not = icmp eq i32 %6, 0
  br i1 %.not, label %17, label %7

7:                                                ; preds = %2
  %8 = tail call fastcc noundef double @_ZL16force_flop_countPK6t_nrnb(ptr noundef %1)
  %9 = load ptr, ptr %3, align 8
  %10 = getelementptr inbounds i8, ptr %9, i64 2200
  %11 = load double, ptr %10, align 8
  %12 = fadd double %8, %11
  store double %12, ptr %10, align 8
  %13 = load ptr, ptr %3, align 8
  %14 = getelementptr inbounds i8, ptr %13, i64 2208
  %15 = load i32, ptr %14, align 8
  %16 = add nsw i32 %15, 1
  store i32 %16, ptr %14, align 8
  br label %17

17:                                               ; preds = %7, %2
  ret void
}